; Function Attrs: mustprogress nounwind uwtable
define dso_local { i32, ptr } @_ZN4llvm3vfs18InMemoryFileSystem11getRealPathERKNS_5TwineERNS_15SmallVectorImplIcEE(ptr noundef nonnull align 8 dereferenceable(57) %0, ptr noundef nonnull align 8 dereferenceable(34) %1, ptr noundef nonnull align 8 dereferenceable(24) %2) unnamed_addr #0 align 2 {
  %4 = alloca %"class.llvm::ErrorOr.8", align 8
  %5 = load ptr, ptr %0, align 8
  %6 = getelementptr inbounds i8, ptr %5, i64 72
  %7 = load ptr, ptr %6, align 8
  call void %7(ptr dead_on_unwind nonnull writable sret(%"class.llvm::ErrorOr.8") align 8 %4, ptr noundef nonnull align 8 dereferenceable(57) %0) #27
  %8 = getelementptr inbounds nuw i8, ptr %4, i64 32
  %9 = load i8, ptr %8, align 8
  %10 = trunc i8 %9 to i1
  br i1 %10, label %13, label %11

11:                                               ; preds = %3
  %12 = call noundef zeroext i1 @_ZNKSt7__cxx1112basic_stringIcSt11char_traitsIcESaIcEE5emptyEv(ptr noundef nonnull align 8 dereferenceable(32) %4) #27
  br i1 %12, label %13, label %15

13:                                               ; preds = %11, %3
  %14 = tail call noundef nonnull align 8 dereferenceable(8) ptr @_ZNSt3_V216generic_categoryEv() #29
  br label %25

15:                                               ; preds = %11
  call void @_ZNK4llvm5Twine8toVectorERNS_15SmallVectorImplIcEE(ptr noundef nonnull align 8 dereferenceable(34) %1, ptr noundef nonnull align 8 dereferenceable(24) %2) #27
  %16 = load ptr, ptr %0, align 8
  %17 = getelementptr inbounds i8, ptr %16, i64 104
  %18 = load ptr, ptr %17, align 8
  %19 = call { i32, ptr } %18(ptr noundef nonnull align 8 dereferenceable(12) %0, ptr noundef nonnull align 8 dereferenceable(24) %2) #27
  %20 = extractvalue { i32, ptr } %19, 0
  %21 = extractvalue { i32, ptr } %19, 1
  %.not = icmp eq i32 %20, 0
  br i1 %.not, label %22, label %25

22:                                               ; preds = %15
  %23 = call noundef zeroext i1 @_ZN4llvm3sys4path11remove_dotsERNS_15SmallVectorImplIcEEbNS1_5StyleE(ptr noundef nonnull align 8 dereferenceable(24) %2, i1 noundef zeroext true, i32 noundef 0) #27
  %24 = tail call noundef nonnull align 8 dereferenceable(8) ptr @_ZNSt3_V215system_categoryEv() #29
  br label %25

25:                                               ; preds = %15, %22, %13
  %.sroa.5.0 = phi ptr [ %14, %13 ], [ %21, %15 ], [ %24, %22 ]
  %.sroa.0.0 = phi i32 [ 1, %13 ], [ %20, %15 ], [ 0, %22 ]
  %26 = load i8, ptr %8, align 8
  %27 = trunc i8 %26 to i1
  br i1 %27, label %_ZN4llvm7ErrorOrINSt7__cxx1112basic_stringIcSt11char_traitsIcESaIcEEEED2Ev.exit, label %28

28:                                               ; preds = %25
  call void @_ZNSt7__cxx1112basic_stringIcSt11char_traitsIcESaIcEED1Ev(ptr noundef nonnull align 8 dereferenceable(32) %4) #27
  br label %_ZN4llvm7ErrorOrINSt7__cxx1112basic_stringIcSt11char_traitsIcESaIcEEEED2Ev.exit

_ZN4llvm7ErrorOrINSt7__cxx1112basic_stringIcSt11char_traitsIcESaIcEEEED2Ev.exit: ; preds = %25, %28
  %.fca.0.insert = insertvalue { i32, ptr } poison, i32 %.sroa.0.0, 0
  %.fca.1.insert = insertvalue { i32, ptr } %.fca.0.insert, ptr %.sroa.5.0, 1
  ret { i32, ptr } %.fca.1.insert
}